target datalayout = "e-m:e-p270:32:32-p271:32:32-p272:64:64-i64:64-i128:128-f80:128-n8:16:32:64-S128"
target triple = "x86_64-pc-linux-gnu"

%"struct.url::URLComponentSource" = type { ptr, ptr, ptr, ptr, ptr, ptr, ptr, ptr }
%"struct.url::Component" = type { i32, i32 }
%"struct.url::Parsed" = type { %"struct.url::Component", %"struct.url::Component", %"struct.url::Component", %"struct.url::Component", %"struct.url::Component", %"struct.url::Component", %"struct.url::Component", %"struct.url::Component", ptr }
%"class.url::RawCanonOutput" = type { %"class.url::RawCanonOutputT" }
%"class.url::RawCanonOutputT" = type { %"class.url::CanonOutputT", [1024 x i8] }
%"class.url::CanonOutputT" = type { ptr, ptr, i32, i32 }

@_ZTVN3url12CanonOutputTIcEE = linkonce_odr unnamed_addr constant { [5 x ptr] } { [5 x ptr] [ptr null, ptr @_ZTIN3url12CanonOutputTIcEE, ptr @_ZN3url12CanonOutputTIcED2Ev, ptr @_ZN3url12CanonOutputTIcED0Ev, ptr @__cxa_pure_virtual] }, comdat, align 8

; Function Attrs: mustprogress nounwind uwtable
define linkonce_odr void @_ZN3url12CanonOutputTIcEC2Ev(ptr noundef nonnull align 8 dereferenceable(24) %0) unnamed_addr #2 comdat align 2 {
  %2 = alloca ptr, align 8
  store ptr %0, ptr %2, align 8, !tbaa !12
  %3 = load ptr, ptr %2, align 8
  store ptr getelementptr inbounds inrange(-16, 24) ({ [5 x ptr] }, ptr @_ZTVN3url12CanonOutputTIcEE, i32 0, i32 0, i32 2), ptr %3, align 8, !tbaa !61
  %4 = getelementptr inbounds nuw %"class.url::CanonOutputT", ptr %3, i32 0, i32 1
  store ptr null, ptr %4, align 8, !tbaa !65
  %5 = getelementptr inbounds nuw %"class.url::CanonOutputT", ptr %3, i32 0, i32 2
  store i32 0, ptr %5, align 8, !tbaa !67
  %6 = getelementptr inbounds nuw %"class.url::CanonOutputT", ptr %3, i32 0, i32 3
  store i32 0, ptr %6, align 4, !tbaa !68
  ret void
}

; Function Attrs: mustprogress nounwind uwtable
define linkonce_odr void @_ZN3url12CanonOutputTIcED2Ev(ptr noundef nonnull align 8 dereferenceable(24) %0) unnamed_addr #2 comdat align 2 {
  %2 = alloca ptr, align 8
  store ptr %0, ptr %2, align 8, !tbaa !12
  ret void
}

; Function Attrs: mustprogress uwtable
define linkonce_odr void @_ZN3url15RawCanonOutputTIcLi1024EEC2Ev(ptr noundef nonnull align 8 dereferenceable(1048) %0) unnamed_addr #0 comdat align 2 {
  %2 = alloca ptr, align 8
  store ptr %0, ptr %2, align 8, !tbaa !63
  %3 = load ptr, ptr %2, align 8
  call void @_ZN3url12CanonOutputTIcEC2Ev(ptr noundef nonnull align 8 dereferenceable(24) %3)
  store ptr getelementptr inbounds inrange(-16, 24) ({ [5 x ptr] }, ptr @_ZTVN3url15RawCanonOutputTIcLi1024EEE, i32 0, i32 0, i32 2), ptr %3, align 8, !tbaa !61
  %4 = getelementptr inbounds nuw %"class.url::RawCanonOutputT", ptr %3, i32 0, i32 1
  %5 = getelementptr inbounds [1024 x i8], ptr %4, i64 0, i64 0
  %6 = getelementptr inbounds nuw %"class.url::CanonOutputT", ptr %3, i32 0, i32 1
  store ptr %5, ptr %6, align 8, !tbaa !65
  %7 = getelementptr inbounds nuw %"class.url::CanonOutputT", ptr %3, i32 0, i32 2
  store i32 1024, ptr %7, align 8, !tbaa !67
  ret void
}

; Function Attrs: mustprogress nounwind uwtable
define linkonce_odr void @_ZN3url15RawCanonOutputTIcLi1024EED2Ev(ptr noundef nonnull align 8 dereferenceable(1048) %0) unnamed_addr #2 comdat align 2 {
  %2 = alloca ptr, align 8
  store ptr %0, ptr %2, align 8, !tbaa !63
  %3 = load ptr, ptr %2, align 8
  store ptr getelementptr inbounds inrange(-16, 24) ({ [5 x ptr] }, ptr @_ZTVN3url15RawCanonOutputTIcLi1024EEE, i32 0, i32 0, i32 2), ptr %3, align 8, !tbaa !61
  %4 = getelementptr inbounds nuw %"class.url::CanonOutputT", ptr %3, i32 0, i32 1
  %5 = load ptr, ptr %4, align 8, !tbaa !65
  %6 = getelementptr inbounds nuw %"class.url::RawCanonOutputT", ptr %3, i32 0, i32 1
  %7 = getelementptr inbounds [1024 x i8], ptr %6, i64 0, i64 0
  %8 = icmp ne ptr %5, %7
  br i1 %8, label %9, label %15

9:                                                ; preds = %1
  %10 = getelementptr inbounds nuw %"class.url::CanonOutputT", ptr %3, i32 0, i32 1
  %11 = load ptr, ptr %10, align 8, !tbaa !65
  %12 = icmp eq ptr %11, null
  br i1 %12, label %14, label %13

13:                                               ; preds = %9
  call void @_ZdaPv(ptr noundef %11) #12
  br label %14

14:                                               ; preds = %13, %9
  br label %15

15:                                               ; preds = %14, %1
  call void @_ZN3url12CanonOutputTIcED2Ev(ptr noundef nonnull align 8 dereferenceable(24) %3) #11
  ret void
}

; Function Attrs: mustprogress nounwind uwtable
define linkonce_odr void @_ZN3url18URLComponentSourceIcEC2EPKc(ptr noundef nonnull align 8 dereferenceable(64) %0, ptr noundef %1) unnamed_addr #2 comdat align 2 {
  %3 = alloca ptr, align 8
  %4 = alloca ptr, align 8
  store ptr %0, ptr %3, align 8, !tbaa !14
  store ptr %1, ptr %4, align 8, !tbaa !3
  %5 = load ptr, ptr %3, align 8
  %6 = getelementptr inbounds nuw %"struct.url::URLComponentSource", ptr %5, i32 0, i32 0
  %7 = load ptr, ptr %4, align 8, !tbaa !3
  store ptr %7, ptr %6, align 8, !tbaa !33
  %8 = getelementptr inbounds nuw %"struct.url::URLComponentSource", ptr %5, i32 0, i32 1
  %9 = load ptr, ptr %4, align 8, !tbaa !3
  store ptr %9, ptr %8, align 8, !tbaa !34
  %10 = getelementptr inbounds nuw %"struct.url::URLComponentSource", ptr %5, i32 0, i32 2
  %11 = load ptr, ptr %4, align 8, !tbaa !3
  store ptr %11, ptr %10, align 8, !tbaa !35
  %12 = getelementptr inbounds nuw %"struct.url::URLComponentSource", ptr %5, i32 0, i32 3
  %13 = load ptr, ptr %4, align 8, !tbaa !3
  store ptr %13, ptr %12, align 8, !tbaa !36
  %14 = getelementptr inbounds nuw %"struct.url::URLComponentSource", ptr %5, i32 0, i32 4
  %15 = load ptr, ptr %4, align 8, !tbaa !3
  store ptr %15, ptr %14, align 8, !tbaa !37
  %16 = getelementptr inbounds nuw %"struct.url::URLComponentSource", ptr %5, i32 0, i32 5
  %17 = load ptr, ptr %4, align 8, !tbaa !3
  store ptr %17, ptr %16, align 8, !tbaa !24
  %18 = getelementptr inbounds nuw %"struct.url::URLComponentSource", ptr %5, i32 0, i32 6
  %19 = load ptr, ptr %4, align 8, !tbaa !3
  store ptr %19, ptr %18, align 8, !tbaa !32
  %20 = getelementptr inbounds nuw %"struct.url::URLComponentSource", ptr %5, i32 0, i32 7
  %21 = load ptr, ptr %4, align 8, !tbaa !3
  store ptr %21, ptr %20, align 8, !tbaa !38
  ret void
}

; Function Attrs: inlinehint mustprogress uwtable
define linkonce_odr void @_ZN3url14RawCanonOutputILi1024EEC2Ev(ptr noundef nonnull align 8 dereferenceable(1048) %0) unnamed_addr #5 comdat align 2 {
  %2 = alloca ptr, align 8
  store ptr %0, ptr %2, align 8, !tbaa !59
  %3 = load ptr, ptr %2, align 8
  call void @_ZN3url15RawCanonOutputTIcLi1024EEC2Ev(ptr noundef nonnull align 8 dereferenceable(1048) %3)
  store ptr getelementptr inbounds inrange(-16, 24) ({ [5 x ptr] }, ptr @_ZTVN3url14RawCanonOutputILi1024EEE, i32 0, i32 0, i32 2), ptr %3, align 8, !tbaa !61
  ret void
}

; Function Attrs: mustprogress uwtable
define noundef zeroext i1 @_ZN3url16ReplaceMailtoURLEPKcRKNS_6ParsedERKNS_12ReplacementsItEEPNS_12CanonOutputTIcEEPS2_(ptr noundef %0, ptr noundef nonnull align 8 dereferenceable(72) %1, ptr noundef nonnull align 8 dereferenceable(136) %2, ptr noundef %3, ptr noundef %4) #0 personality ptr @__gxx_personality_v0 {
  %6 = alloca ptr, align 8
  %7 = alloca ptr, align 8
  %8 = alloca ptr, align 8
  %9 = alloca ptr, align 8
  %10 = alloca ptr, align 8
  %11 = alloca %"class.url::RawCanonOutput", align 8
  %12 = alloca %"struct.url::URLComponentSource", align 8
  %13 = alloca ptr, align 8
  %14 = alloca i32, align 4
  %15 = alloca %"struct.url::Parsed", align 8
  store ptr %0, ptr %6, align 8, !tbaa !3
  store ptr %1, ptr %7, align 8, !tbaa !10
  store ptr %2, ptr %8, align 8, !tbaa !57
  store ptr %3, ptr %9, align 8, !tbaa !12
  store ptr %4, ptr %10, align 8, !tbaa !10
  call void @llvm.lifetime.start.p0(i64 1048, ptr %11) #11
  call void @_ZN3url14RawCanonOutputILi1024EEC2Ev(ptr noundef nonnull align 8 dereferenceable(1048) %11)
  call void @llvm.lifetime.start.p0(i64 64, ptr %12) #11
  %16 = load ptr, ptr %6, align 8, !tbaa !3
  invoke void @_ZN3url18URLComponentSourceIcEC2EPKc(ptr noundef nonnull align 8 dereferenceable(64) %12, ptr noundef %16)
          to label %17 unwind label %28

17:                                               ; preds = %5
  call void @llvm.lifetime.start.p0(i64 72, ptr %15) #11
  %18 = load ptr, ptr %7, align 8, !tbaa !10
  invoke void @_ZN3url6ParsedC1ERKS0_(ptr noundef nonnull align 8 dereferenceable(72) %15, ptr noundef nonnull align 8 dereferenceable(72) %18)
          to label %19 unwind label %32

19:                                               ; preds = %17
  %20 = load ptr, ptr %6, align 8, !tbaa !3
  %21 = load ptr, ptr %8, align 8, !tbaa !57
  %22 = invoke noundef zeroext i1 @_ZN3url28SetupUTF16OverrideComponentsEPKcRKNS_12ReplacementsItEEPNS_12CanonOutputTIcEEPNS_18URLComponentSourceIcEEPNS_6ParsedE(ptr noundef %20, ptr noundef nonnull align 8 dereferenceable(136) %21, ptr noundef %11, ptr noundef %12, ptr noundef %15)
          to label %23 unwind label %36

23:                                               ; preds = %19
  %24 = load ptr, ptr %9, align 8, !tbaa !12
  %25 = load ptr, ptr %10, align 8, !tbaa !10
  %26 = invoke noundef zeroext i1 @_ZN3url12_GLOBAL__N_123DoCanonicalizeMailtoURLIchEEbRKNS_18URLComponentSourceIT_EERKNS_6ParsedEPNS_12CanonOutputTIcEEPS7_(ptr noundef nonnull align 8 dereferenceable(64) %12, ptr noundef nonnull align 8 dereferenceable(72) %15, ptr noundef %24, ptr noundef %25)
          to label %27 unwind label %36

27:                                               ; preds = %23
  call void @_ZN3url6ParsedD1Ev(ptr noundef nonnull align 8 dereferenceable(72) %15) #11
  call void @llvm.lifetime.end.p0(i64 72, ptr %15) #11
  call void @llvm.lifetime.end.p0(i64 64, ptr %12) #11
  call void @_ZN3url15RawCanonOutputTIcLi1024EED2Ev(ptr noundef nonnull align 8 dereferenceable(1048) %11) #11
  call void @llvm.lifetime.end.p0(i64 1048, ptr %11) #11
  ret i1 %26

28:                                               ; preds = %5
  %29 = landingpad { ptr, i32 }
          cleanup
  %30 = extractvalue { ptr, i32 } %29, 0
  store ptr %30, ptr %13, align 8
  %31 = extractvalue { ptr, i32 } %29, 1
  store i32 %31, ptr %14, align 4
  br label %41

32:                                               ; preds = %17
  %33 = landingpad { ptr, i32 }
          cleanup
  %34 = extractvalue { ptr, i32 } %33, 0
  store ptr %34, ptr %13, align 8
  %35 = extractvalue { ptr, i32 } %33, 1
  store i32 %35, ptr %14, align 4
  br label %40

36:                                               ; preds = %23, %19
  %37 = landingpad { ptr, i32 }
          cleanup
  %38 = extractvalue { ptr, i32 } %37, 0
  store ptr %38, ptr %13, align 8
  %39 = extractvalue { ptr, i32 } %37, 1
  store i32 %39, ptr %14, align 4
  call void @_ZN3url6ParsedD1Ev(ptr noundef nonnull align 8 dereferenceable(72) %15) #11
  br label %40

40:                                               ; preds = %36, %32
  call void @llvm.lifetime.end.p0(i64 72, ptr %15) #11
  br label %41

41:                                               ; preds = %40, %28
  call void @llvm.lifetime.end.p0(i64 64, ptr %12) #11
  call void @_ZN3url15RawCanonOutputTIcLi1024EED2Ev(ptr noundef nonnull align 8 dereferenceable(1048) %11) #11
  call void @llvm.lifetime.end.p0(i64 1048, ptr %11) #11
  br label %42

42:                                               ; preds = %41
  %43 = load ptr, ptr %13, align 8
  %44 = load i32, ptr %14, align 4
  %45 = insertvalue { ptr, i32 } poison, ptr %43, 0
  %46 = insertvalue { ptr, i32 } %45, i32 %44, 1
  resume { ptr, i32 } %46
}