; Function Attrs: mustprogress uwtable
define noundef zeroext i1 @_ZN3url16ReplaceMailtoURLEPKcRKNS_6ParsedERKNS_12ReplacementsItEEPNS_12CanonOutputTIcEEPS2_(ptr noundef %0, ptr noundef nonnull align 8 dereferenceable(72) %1, ptr noundef nonnull align 8 dereferenceable(136) %2, ptr noundef %3, ptr noundef %4) local_unnamed_addr #0 personality ptr @__gxx_personality_v0 {
  %6 = alloca %"class.url::RawCanonOutput", align 8
  %7 = alloca %"struct.url::URLComponentSource", align 8
  %8 = alloca %"struct.url::Parsed", align 8
  call void @llvm.lifetime.start.p0(i64 1048, ptr nonnull %6) #11
  %9 = getelementptr inbounds nuw i8, ptr %6, i64 8
  %10 = getelementptr inbounds nuw i8, ptr %6, i64 16
  store i64 1024, ptr %10, align 8
  %11 = getelementptr inbounds nuw i8, ptr %6, i64 24
  store ptr %11, ptr %9, align 8, !tbaa !29
  store ptr getelementptr inbounds nuw inrange(-16, 24) (i8, ptr @_ZTVN3url14RawCanonOutputILi1024EEE, i64 16), ptr %6, align 8, !tbaa !26
  call void @llvm.lifetime.start.p0(i64 64, ptr nonnull %7) #11
  store ptr %0, ptr %7, align 8, !tbaa !3
  %12 = getelementptr inbounds nuw i8, ptr %7, i64 8
  store ptr %0, ptr %12, align 8, !tbaa !9
  %13 = getelementptr inbounds nuw i8, ptr %7, i64 16
  store ptr %0, ptr %13, align 8, !tbaa !10
  %14 = getelementptr inbounds nuw i8, ptr %7, i64 24
  store ptr %0, ptr %14, align 8, !tbaa !11
  %15 = getelementptr inbounds nuw i8, ptr %7, i64 32
  store ptr %0, ptr %15, align 8, !tbaa !12
  %16 = getelementptr inbounds nuw i8, ptr %7, i64 40
  store ptr %0, ptr %16, align 8, !tbaa !13
  %17 = getelementptr inbounds nuw i8, ptr %7, i64 48
  store ptr %0, ptr %17, align 8, !tbaa !14
  %18 = getelementptr inbounds nuw i8, ptr %7, i64 56
  store ptr %0, ptr %18, align 8, !tbaa !15
  call void @llvm.lifetime.start.p0(i64 72, ptr nonnull %8) #11
  invoke void @_ZN3url6ParsedC1ERKS0_(ptr noundef nonnull align 8 dereferenceable(72) %8, ptr noundef nonnull align 8 dereferenceable(72) %1)
          to label %19 unwind label %27

19:                                               ; preds = %5
  %20 = invoke noundef zeroext i1 @_ZN3url28SetupUTF16OverrideComponentsEPKcRKNS_12ReplacementsItEEPNS_12CanonOutputTIcEEPNS_18URLComponentSourceIcEEPNS_6ParsedE(ptr noundef %0, ptr noundef nonnull align 8 dereferenceable(136) %2, ptr noundef nonnull %6, ptr noundef nonnull %7, ptr noundef nonnull %8)
          to label %21 unwind label %29

21:                                               ; preds = %19
  %22 = invoke fastcc noundef zeroext i1 @_ZN3url12_GLOBAL__N_123DoCanonicalizeMailtoURLIchEEbRKNS_18URLComponentSourceIT_EERKNS_6ParsedEPNS_12CanonOutputTIcEEPS7_(ptr noundef nonnull align 8 dereferenceable(64) %7, ptr noundef nonnull align 8 dereferenceable(72) %8, ptr noundef %3, ptr noundef %4)
          to label %23 unwind label %29

23:                                               ; preds = %21
  call void @_ZN3url6ParsedD1Ev(ptr noundef nonnull align 8 dereferenceable(72) %8) #11
  call void @llvm.lifetime.end.p0(i64 72, ptr nonnull %8) #11
  call void @llvm.lifetime.end.p0(i64 64, ptr nonnull %7) #11
  store ptr getelementptr inbounds nuw inrange(-16, 24) (i8, ptr @_ZTVN3url15RawCanonOutputTIcLi1024EEE, i64 16), ptr %6, align 8, !tbaa !26
  %24 = load ptr, ptr %9, align 8, !tbaa !29
  %.not.i = icmp eq ptr %24, %11
  %25 = icmp eq ptr %24, null
  %or.cond.i = or i1 %.not.i, %25
  br i1 %or.cond.i, label %_ZN3url15RawCanonOutputTIcLi1024EED2Ev.exit, label %26

26:                                               ; preds = %23
  call void @_ZdaPv(ptr noundef nonnull %24) #12
  br label %_ZN3url15RawCanonOutputTIcLi1024EED2Ev.exit

_ZN3url15RawCanonOutputTIcLi1024EED2Ev.exit:      ; preds = %23, %26
  call void @llvm.lifetime.end.p0(i64 1048, ptr nonnull %6) #11
  ret i1 %22

27:                                               ; preds = %5
  %28 = landingpad { ptr, i32 }
          cleanup
  br label %31

29:                                               ; preds = %21, %19
  %30 = landingpad { ptr, i32 }
          cleanup
  call void @_ZN3url6ParsedD1Ev(ptr noundef nonnull align 8 dereferenceable(72) %8) #11
  br label %31

31:                                               ; preds = %29, %27
  %.pn = phi { ptr, i32 } [ %30, %29 ], [ %28, %27 ]
  call void @llvm.lifetime.end.p0(i64 72, ptr nonnull %8) #11
  call void @llvm.lifetime.end.p0(i64 64, ptr nonnull %7) #11
  store ptr getelementptr inbounds nuw inrange(-16, 24) (i8, ptr @_ZTVN3url15RawCanonOutputTIcLi1024EEE, i64 16), ptr %6, align 8, !tbaa !26
  %32 = load ptr, ptr %9, align 8, !tbaa !29
  %.not.i9 = icmp eq ptr %32, %11
  %33 = icmp eq ptr %32, null
  %or.cond.i10 = or i1 %.not.i9, %33
  br i1 %or.cond.i10, label %_ZN3url15RawCanonOutputTIcLi1024EED2Ev.exit11, label %34

34:                                               ; preds = %31
  call void @_ZdaPv(ptr noundef nonnull %32) #12
  br label %_ZN3url15RawCanonOutputTIcLi1024EED2Ev.exit11

_ZN3url15RawCanonOutputTIcLi1024EED2Ev.exit11:    ; preds = %31, %34
  call void @llvm.lifetime.end.p0(i64 1048, ptr nonnull %6) #11
  resume { ptr, i32 } %.pn
}